; Function Attrs: nounwind uwtable
define dso_local ptr @fsck_describe_object(ptr noundef readonly captures(none) %0, ptr noundef %1) local_unnamed_addr #0 {
  %3 = alloca %struct.object_id, align 8
  %4 = alloca %struct.object_id, align 8
  %5 = getelementptr inbounds nuw i8, ptr %0, i64 232
  %6 = load ptr, ptr %5, align 8, !tbaa !57
  %.not.i = icmp eq ptr %6, null
  br i1 %.not.i, label %fsck_get_object_name.exit, label %7

7:                                                ; preds = %2
  call void @llvm.lifetime.start.p0(i64 36, ptr nonnull %4)
  call void @llvm.memcpy.p0.p0.i64(ptr noundef nonnull align 8 dereferenceable(36) %4, ptr noundef nonnull readonly align 4 dereferenceable(36) %1, i64 36, i1 false)
  %8 = load i32, ptr %6, align 8, !tbaa !58
  %.not.i.i = icmp eq i32 %8, 0
  br i1 %.not.i.i, label %kh_get_oid_map.exit.i, label %9

9:                                                ; preds = %7
  %10 = add i32 %8, -1
  %.val.i.i = load i32, ptr %4, align 8
  %11 = and i32 %.val.i.i, %10
  %12 = getelementptr inbounds nuw i8, ptr %6, i64 16
  %13 = load ptr, ptr %12, align 8, !tbaa !60
  %14 = getelementptr inbounds nuw i8, ptr %6, i64 24
  br label %15

15:                                               ; preds = %.critedge2.i.i, %9
  %.027.i.i = phi i32 [ %11, %9 ], [ %32, %.critedge2.i.i ]
  %.0.i.i = phi i32 [ 0, %9 ], [ %30, %.critedge2.i.i ]
  %16 = lshr i32 %.027.i.i, 4
  %17 = zext nneg i32 %16 to i64
  %18 = getelementptr inbounds nuw i32, ptr %13, i64 %17
  %19 = load i32, ptr %18, align 4, !tbaa !29
  %20 = shl i32 %.027.i.i, 1
  %21 = and i32 %20, 30
  %22 = lshr i32 %19, %21
  %23 = and i32 %22, 2
  %.not30.i.i = icmp eq i32 %23, 0
  br i1 %.not30.i.i, label %24, label %.critedge.i.i

24:                                               ; preds = %15
  %25 = and i32 %22, 1
  %.not31.i.i = icmp eq i32 %25, 0
  br i1 %.not31.i.i, label %26, label %.critedge2.i.i

26:                                               ; preds = %24
  %27 = load ptr, ptr %14, align 8, !tbaa !61
  %28 = zext i32 %.027.i.i to i64
  %29 = getelementptr inbounds nuw %struct.object_id, ptr %27, i64 %28
  call void @llvm.lifetime.start.p0(i64 36, ptr nonnull %3) #16
  call void @llvm.memcpy.p0.p0.i64(ptr noundef nonnull align 8 dereferenceable(36) %3, ptr noundef nonnull align 4 dereferenceable(36) %29, i64 36, i1 false), !tbaa.struct !62
  %bcmp.i.i.i.i = call i32 @bcmp(ptr noundef nonnull readonly align 8 dereferenceable(32) %3, ptr noundef nonnull readonly align 8 dereferenceable(32) %4, i64 32)
  %.not.i.i.not.i.i = icmp eq i32 %bcmp.i.i.i.i, 0
  call void @llvm.lifetime.end.p0(i64 36, ptr nonnull %3) #16
  br i1 %.not.i.i.not.i.i, label %.critedge.i.i, label %.critedge2.i.i

.critedge2.i.i:                                   ; preds = %26, %24
  %30 = add i32 %.0.i.i, 1
  %31 = add i32 %30, %.027.i.i
  %32 = and i32 %31, %10
  %33 = icmp eq i32 %32, %11
  br i1 %33, label %kh_get_oid_map.exit.thread.i, label %15, !llvm.loop !63

kh_get_oid_map.exit.thread.i:                     ; preds = %.critedge2.i.i
  call void @llvm.lifetime.end.p0(i64 36, ptr nonnull %4)
  br label %fsck_get_object_name.exit

.critedge.i.i:                                    ; preds = %26, %15
  %34 = shl nuw i32 3, %21
  %35 = and i32 %34, %19
  %.not33.i.i = icmp eq i32 %35, 0
  %spec.select.i.i = select i1 %.not33.i.i, i32 %.027.i.i, i32 %8
  br label %kh_get_oid_map.exit.i

kh_get_oid_map.exit.i:                            ; preds = %.critedge.i.i, %7
  %.1.i.i = phi i32 [ 0, %7 ], [ %spec.select.i.i, %.critedge.i.i ]
  call void @llvm.lifetime.end.p0(i64 36, ptr nonnull %4)
  %.not9.i = icmp ult i32 %.1.i.i, %8
  br i1 %.not9.i, label %36, label %fsck_get_object_name.exit

36:                                               ; preds = %kh_get_oid_map.exit.i
  %37 = getelementptr inbounds nuw i8, ptr %6, i64 32
  %38 = load ptr, ptr %37, align 8, !tbaa !64
  %39 = zext i32 %.1.i.i to i64
  %40 = getelementptr inbounds nuw ptr, ptr %38, i64 %39
  %41 = load ptr, ptr %40, align 8, !tbaa !65
  br label %fsck_get_object_name.exit

fsck_get_object_name.exit:                        ; preds = %2, %kh_get_oid_map.exit.thread.i, %kh_get_oid_map.exit.i, %36
  %.0.i = phi ptr [ %41, %36 ], [ null, %2 ], [ null, %kh_get_oid_map.exit.i ], [ null, %kh_get_oid_map.exit.thread.i ]
  %42 = load i32, ptr @fsck_describe_object.b, align 4, !tbaa !29
  %43 = zext nneg i32 %42 to i64
  %44 = getelementptr inbounds nuw %struct.strbuf, ptr @fsck_describe_object.bufs, i64 %43
  %45 = add nuw nsw i32 %42, 1
  %46 = and i32 %45, 3
  store i32 %46, ptr @fsck_describe_object.b, align 4, !tbaa !29
  %47 = getelementptr inbounds nuw i8, ptr %44, i64 8
  store i64 0, ptr %47, align 8, !tbaa !73
  %48 = getelementptr inbounds nuw i8, ptr %44, i64 16
  %49 = load ptr, ptr %48, align 8, !tbaa !55
  %.not9.i9 = icmp eq ptr %49, @strbuf_slopbuf
  br i1 %.not9.i9, label %strbuf_setlen.exit, label %50

50:                                               ; preds = %fsck_get_object_name.exit
  store i8 0, ptr %49, align 1, !tbaa !15
  br label %strbuf_setlen.exit

strbuf_setlen.exit:                               ; preds = %fsck_get_object_name.exit, %50
  %51 = tail call ptr @oid_to_hex(ptr noundef %1) #16
  %52 = tail call i64 @strlen(ptr noundef nonnull dereferenceable(1) %51) #17
  tail call void @strbuf_add(ptr noundef nonnull %44, ptr noundef nonnull %51, i64 noundef %52) #16
  %.not = icmp eq ptr %.0.i, null
  br i1 %.not, label %54, label %53

53:                                               ; preds = %strbuf_setlen.exit
  tail call void (ptr, ptr, ...) @strbuf_addf(ptr noundef nonnull %44, ptr noundef nonnull @.str.7, ptr noundef nonnull %.0.i) #16
  br label %54

54:                                               ; preds = %53, %strbuf_setlen.exit
  %55 = load ptr, ptr %48, align 8, !tbaa !55
  ret ptr %55
}